target datalayout = "e-m:e-p270:32:32-p271:32:32-p272:64:64-i64:64-i128:128-f80:128-n8:16:32:64-S128"
target triple = "x86_64-pc-linux-gnu"

%struct.H5D_shared_t = type { i64, i8, i64, ptr, ptr, i64, i64, %struct.H5D_dcpl_cache_t, %struct.H5O_layout_t, i8, i32, [32 x i64], [32 x i64], [32 x i64], %struct.anon.6, %struct.H5D_append_flush_t, ptr, ptr }
%struct.H5D_dcpl_cache_t = type { %struct.H5O_fill_t, %struct.H5O_pline_t, %struct.H5O_efl_t }
%struct.H5O_fill_t = type { %struct.H5O_shared_t, i32, ptr, i64, ptr, i32, i32, i8 }
%struct.H5O_shared_t = type { i32, ptr, i32, %union.anon }
%union.anon = type { %struct.H5O_mesg_loc_t }
%struct.H5O_mesg_loc_t = type { i32, i64 }
%struct.H5O_pline_t = type { %struct.H5O_shared_t, i32, i64, i64, ptr }
%struct.H5O_efl_t = type { i64, i64, i64, ptr }
%struct.H5O_layout_t = type { i32, i32, ptr, %union.anon.0, %struct.H5O_storage_t }
%union.anon.0 = type { %struct.H5O_layout_chunk_t }
%struct.H5O_layout_chunk_t = type { i32, i8, i32, [33 x i32], i32, i32, i64, i64, [33 x i64], [33 x i64], [33 x i64], [33 x i64], %union.anon.1 }
%union.anon.1 = type { %struct.H5O_layout_chunk_earray_t }
%struct.H5O_layout_chunk_earray_t = type { %struct.anon.2, i32, [33 x i32], [33 x i64], [33 x i64] }
%struct.anon.2 = type { i8, i8, i8, i8, i8 }
%struct.H5O_storage_t = type { i32, %union.anon.4 }
%union.anon.4 = type { %struct.H5O_storage_virtual_t }
%struct.H5O_storage_virtual_t = type { %struct.H5HG_t, i64, ptr, i64, [32 x i64], i32, i64, i64, i64, i8 }
%struct.H5HG_t = type { i64, i64 }
%struct.anon.6 = type { %struct.H5D_rdcdc_t, %struct.H5D_rdcc_t }
%struct.H5D_rdcdc_t = type { ptr, i64, i64, i64, i8 }
%struct.H5D_rdcc_t = type { %struct.anon.7, i64, i64, double, ptr, ptr, ptr, i64, i32, %struct.H5D_chunk_cached_t, ptr, ptr, ptr, ptr, [32 x i64], [32 x i64], [32 x i32] }
%struct.anon.7 = type { i32, i32, i32, i32 }
%struct.H5D_chunk_cached_t = type { i8, [33 x i64], i64, i32, i64, i32 }
%struct.H5D_append_flush_t = type { i32, [32 x i64], ptr, ptr }
%struct.H5D_t = type { %struct.H5O_loc_t, %struct.H5G_name_t, ptr }
%struct.H5O_loc_t = type { ptr, i64, i8 }
%struct.H5G_name_t = type { ptr, ptr, i32 }

@H5D_init_g = external global i8, align 1
@H5_libterm_g = external global i8, align 1
@.str.2 = private unnamed_addr constant [100 x i8] c"generated/home/dtcxzyw/WorkSpace/Projects/compilers/llvm-opt-benchmark/bench/hdf5/hdf5/src/H5Dint.c\00", align 1
@H5E_FUNC_g = external global i64, align 8
@H5E_CANTINIT_g = external global i64, align 8
@.str.3 = private unnamed_addr constant [32 x i8] c"interface initialization failed\00", align 1
@H5E_DATASET_g = external global i64, align 8
@H5E_CANTRELEASE_g = external global i64, align 8
@H5E_CANTRESET_g = external global i64, align 8
@.str.46 = private unnamed_addr constant [28 x i8] c"unable to reset layout info\00", align 1
@.str.49 = private unnamed_addr constant [28 x i8] c"unable to release dataspace\00", align 1
@H5E_CANTCOPY_g = external global i64, align 8
@__func__.H5D_mult_refresh_reopen = private unnamed_addr constant [24 x i8] c"H5D_mult_refresh_reopen\00", align 1
@.str.77 = private unnamed_addr constant [50 x i8] c"unable to load dataspace info from dataset header\00", align 1
@.str.78 = private unnamed_addr constant [27 x i8] c"can't cache dataspace info\00", align 1
@.str.79 = private unnamed_addr constant [35 x i8] c"unable to read data layout message\00", align 1

; Function Attrs: nounwind uwtable
define i32 @H5D_mult_refresh_reopen(ptr noundef %0) #0 {
  %2 = alloca ptr, align 8
  %3 = alloca i32, align 4
  %4 = alloca i8, align 1
  store ptr %0, ptr %2, align 8, !tbaa !49
  call void @llvm.lifetime.start.p0(i64 4, ptr %3) #12
  store i32 0, ptr %3, align 4, !tbaa !3
  call void @llvm.lifetime.start.p0(i64 1, ptr %4) #12
  store i8 0, ptr %4, align 1, !tbaa !7
  %5 = load i8, ptr @H5D_init_g, align 1, !tbaa !7, !range !9, !noundef !10
  %6 = trunc i8 %5 to i1
  br i1 %6, label %11, label %7

7:                                                ; preds = %1
  %8 = load i8, ptr @H5_libterm_g, align 1, !tbaa !7, !range !9, !noundef !10
  %9 = trunc i8 %8 to i1
  %10 = xor i1 %9, true
  br label %11

11:                                               ; preds = %7, %1
  %12 = phi i1 [ false, %1 ], [ %10, %7 ]
  %13 = xor i1 %12, true
  %14 = xor i1 %13, true
  %15 = zext i1 %14 to i32
  %16 = sext i32 %15 to i64
  %17 = call i64 @llvm.expect.i64(i64 %16, i64 0)
  %18 = icmp ne i64 %17, 0
  br i1 %18, label %19, label %42

19:                                               ; preds = %11
  store i8 1, ptr @H5D_init_g, align 1, !tbaa !7
  %20 = call i32 @H5D__init_package()
  %21 = icmp slt i32 %20, 0
  br i1 %21, label %22, label %41

22:                                               ; preds = %19
  store i8 0, ptr @H5D_init_g, align 1, !tbaa !7
  br label %23

23:                                               ; preds = %22
  br label %24

24:                                               ; preds = %23
  br label %25

25:                                               ; preds = %24
  %26 = load i64, ptr @H5E_FUNC_g, align 8, !tbaa !11
  %27 = load i64, ptr @H5E_CANTINIT_g, align 8, !tbaa !11
  %28 = call i32 (ptr, ptr, i32, i64, i64, ptr, ...) @H5E_printf_stack(ptr noundef @.str.2, ptr noundef @__func__.H5D_mult_refresh_reopen, i32 noundef 2224, i64 noundef %26, i64 noundef %27, ptr noundef @.str.3)
  br label %29

29:                                               ; preds = %25
  br label %30

30:                                               ; preds = %29
  store i8 1, ptr %4, align 1, !tbaa !7
  %31 = load i8, ptr %4, align 1, !tbaa !7, !range !9, !noundef !10
  %32 = trunc i8 %31 to i1
  %33 = zext i1 %32 to i8
  store i8 %33, ptr %4, align 1, !tbaa !7
  br label %34

34:                                               ; preds = %30
  br label %35

35:                                               ; preds = %34
  br label %36

36:                                               ; preds = %35
  store i32 -1, ptr %3, align 4, !tbaa !3
  br label %198

37:                                               ; No predecessors!
  br label %38

38:                                               ; preds = %37
  br label %39

39:                                               ; preds = %38
  br label %40

40:                                               ; preds = %39
  br label %41

41:                                               ; preds = %40, %19
  br label %42

42:                                               ; preds = %41, %11
  %43 = load i8, ptr @H5D_init_g, align 1, !tbaa !7, !range !9, !noundef !10
  %44 = trunc i8 %43 to i1
  br i1 %44, label %49, label %45

45:                                               ; preds = %42
  %46 = load i8, ptr @H5_libterm_g, align 1, !tbaa !7, !range !9, !noundef !10
  %47 = trunc i8 %46 to i1
  %48 = xor i1 %47, true
  br label %49

49:                                               ; preds = %45, %42
  %50 = phi i1 [ true, %42 ], [ %48, %45 ]
  %51 = xor i1 %50, true
  %52 = xor i1 %51, true
  %53 = zext i1 %52 to i32
  %54 = sext i32 %53 to i64
  %55 = call i64 @llvm.expect.i64(i64 %54, i64 1)
  %56 = icmp ne i64 %55, 0
  br i1 %56, label %57, label %199

57:                                               ; preds = %49
  %58 = load ptr, ptr %2, align 8, !tbaa !49
  %59 = getelementptr inbounds nuw %struct.H5D_t, ptr %58, i32 0, i32 2
  %60 = load ptr, ptr %59, align 8, !tbaa !61
  %61 = getelementptr inbounds nuw %struct.H5D_shared_t, ptr %60, i32 0, i32 0
  %62 = load i64, ptr %61, align 8, !tbaa !98
  %63 = icmp ugt i64 %62, 1
  br i1 %63, label %64, label %197

64:                                               ; preds = %57
  %65 = load ptr, ptr %2, align 8, !tbaa !49
  %66 = getelementptr inbounds nuw %struct.H5D_t, ptr %65, i32 0, i32 2
  %67 = load ptr, ptr %66, align 8, !tbaa !61
  %68 = getelementptr inbounds nuw %struct.H5D_shared_t, ptr %67, i32 0, i32 4
  %69 = load ptr, ptr %68, align 8, !tbaa !69
  %70 = call i32 @H5S_close(ptr noundef %69)
  %71 = icmp slt i32 %70, 0
  br i1 %71, label %72, label %91

72:                                               ; preds = %64
  br label %73

73:                                               ; preds = %72
  br label %74

74:                                               ; preds = %73
  br label %75

75:                                               ; preds = %74
  %76 = load i64, ptr @H5E_DATASET_g, align 8, !tbaa !11
  %77 = load i64, ptr @H5E_CANTRELEASE_g, align 8, !tbaa !11
  %78 = call i32 (ptr, ptr, i32, i64, i64, ptr, ...) @H5E_printf_stack(ptr noundef @.str.2, ptr noundef @__func__.H5D_mult_refresh_reopen, i32 noundef 2233, i64 noundef %76, i64 noundef %77, ptr noundef @.str.49)
  br label %79

79:                                               ; preds = %75
  br label %80

80:                                               ; preds = %79
  store i8 1, ptr %4, align 1, !tbaa !7
  %81 = load i8, ptr %4, align 1, !tbaa !7, !range !9, !noundef !10
  %82 = trunc i8 %81 to i1
  %83 = zext i1 %82 to i8
  store i8 %83, ptr %4, align 1, !tbaa !7
  br label %84

84:                                               ; preds = %80
  br label %85

85:                                               ; preds = %84
  br label %86

86:                                               ; preds = %85
  store i32 -1, ptr %3, align 4, !tbaa !3
  br label %198

87:                                               ; No predecessors!
  br label %88

88:                                               ; preds = %87
  br label %89

89:                                               ; preds = %88
  br label %90

90:                                               ; preds = %89
  br label %91

91:                                               ; preds = %90, %64
  %92 = load ptr, ptr %2, align 8, !tbaa !49
  %93 = getelementptr inbounds nuw %struct.H5D_t, ptr %92, i32 0, i32 0
  %94 = call ptr @H5S_read(ptr noundef %93)
  %95 = load ptr, ptr %2, align 8, !tbaa !49
  %96 = getelementptr inbounds nuw %struct.H5D_t, ptr %95, i32 0, i32 2
  %97 = load ptr, ptr %96, align 8, !tbaa !61
  %98 = getelementptr inbounds nuw %struct.H5D_shared_t, ptr %97, i32 0, i32 4
  store ptr %94, ptr %98, align 8, !tbaa !69
  %99 = icmp eq ptr null, %94
  br i1 %99, label %100, label %119

100:                                              ; preds = %91
  br label %101

101:                                              ; preds = %100
  br label %102

102:                                              ; preds = %101
  br label %103

103:                                              ; preds = %102
  %104 = load i64, ptr @H5E_DATASET_g, align 8, !tbaa !11
  %105 = load i64, ptr @H5E_CANTINIT_g, align 8, !tbaa !11
  %106 = call i32 (ptr, ptr, i32, i64, i64, ptr, ...) @H5E_printf_stack(ptr noundef @.str.2, ptr noundef @__func__.H5D_mult_refresh_reopen, i32 noundef 2237, i64 noundef %104, i64 noundef %105, ptr noundef @.str.77)
  br label %107

107:                                              ; preds = %103
  br label %108

108:                                              ; preds = %107
  store i8 1, ptr %4, align 1, !tbaa !7
  %109 = load i8, ptr %4, align 1, !tbaa !7, !range !9, !noundef !10
  %110 = trunc i8 %109 to i1
  %111 = zext i1 %110 to i8
  store i8 %111, ptr %4, align 1, !tbaa !7
  br label %112

112:                                              ; preds = %108
  br label %113

113:                                              ; preds = %112
  br label %114

114:                                              ; preds = %113
  store i32 -1, ptr %3, align 4, !tbaa !3
  br label %198

115:                                              ; No predecessors!
  br label %116

116:                                              ; preds = %115
  br label %117

117:                                              ; preds = %116
  br label %118

118:                                              ; preds = %117
  br label %119

119:                                              ; preds = %118, %91
  %120 = load ptr, ptr %2, align 8, !tbaa !49
  %121 = call i32 @H5D__cache_dataspace_info(ptr noundef %120)
  %122 = icmp slt i32 %121, 0
  br i1 %122, label %123, label %142

123:                                              ; preds = %119
  br label %124

124:                                              ; preds = %123
  br label %125

125:                                              ; preds = %124
  br label %126

126:                                              ; preds = %125
  %127 = load i64, ptr @H5E_DATASET_g, align 8, !tbaa !11
  %128 = load i64, ptr @H5E_CANTCOPY_g, align 8, !tbaa !11
  %129 = call i32 (ptr, ptr, i32, i64, i64, ptr, ...) @H5E_printf_stack(ptr noundef @.str.2, ptr noundef @__func__.H5D_mult_refresh_reopen, i32 noundef 2241, i64 noundef %127, i64 noundef %128, ptr noundef @.str.78)
  br label %130

130:                                              ; preds = %126
  br label %131

131:                                              ; preds = %130
  store i8 1, ptr %4, align 1, !tbaa !7
  %132 = load i8, ptr %4, align 1, !tbaa !7, !range !9, !noundef !10
  %133 = trunc i8 %132 to i1
  %134 = zext i1 %133 to i8
  store i8 %134, ptr %4, align 1, !tbaa !7
  br label %135

135:                                              ; preds = %131
  br label %136

136:                                              ; preds = %135
  br label %137

137:                                              ; preds = %136
  store i32 -1, ptr %3, align 4, !tbaa !3
  br label %198

138:                                              ; No predecessors!
  br label %139

139:                                              ; preds = %138
  br label %140

140:                                              ; preds = %139
  br label %141

141:                                              ; preds = %140
  br label %142

142:                                              ; preds = %141, %119
  %143 = load ptr, ptr %2, align 8, !tbaa !49
  %144 = getelementptr inbounds nuw %struct.H5D_t, ptr %143, i32 0, i32 2
  %145 = load ptr, ptr %144, align 8, !tbaa !61
  %146 = getelementptr inbounds nuw %struct.H5D_shared_t, ptr %145, i32 0, i32 8
  %147 = call i32 @H5O_msg_reset(i32 noundef 8, ptr noundef %146)
  %148 = icmp slt i32 %147, 0
  br i1 %148, label %149, label %168

149:                                              ; preds = %142
  br label %150

150:                                              ; preds = %149
  br label %151

151:                                              ; preds = %150
  br label %152

152:                                              ; preds = %151
  %153 = load i64, ptr @H5E_DATASET_g, align 8, !tbaa !11
  %154 = load i64, ptr @H5E_CANTRESET_g, align 8, !tbaa !11
  %155 = call i32 (ptr, ptr, i32, i64, i64, ptr, ...) @H5E_printf_stack(ptr noundef @.str.2, ptr noundef @__func__.H5D_mult_refresh_reopen, i32 noundef 2245, i64 noundef %153, i64 noundef %154, ptr noundef @.str.46)
  br label %156

156:                                              ; preds = %152
  br label %157

157:                                              ; preds = %156
  store i8 1, ptr %4, align 1, !tbaa !7
  %158 = load i8, ptr %4, align 1, !tbaa !7, !range !9, !noundef !10
  %159 = trunc i8 %158 to i1
  %160 = zext i1 %159 to i8
  store i8 %160, ptr %4, align 1, !tbaa !7
  br label %161

161:                                              ; preds = %157
  br label %162

162:                                              ; preds = %161
  br label %163

163:                                              ; preds = %162
  store i32 -1, ptr %3, align 4, !tbaa !3
  br label %198

164:                                              ; No predecessors!
  br label %165

165:                                              ; preds = %164
  br label %166

166:                                              ; preds = %165
  br label %167

167:                                              ; preds = %166
  br label %168

168:                                              ; preds = %167, %142
  %169 = load ptr, ptr %2, align 8, !tbaa !49
  %170 = getelementptr inbounds nuw %struct.H5D_t, ptr %169, i32 0, i32 0
  %171 = load ptr, ptr %2, align 8, !tbaa !49
  %172 = getelementptr inbounds nuw %struct.H5D_t, ptr %171, i32 0, i32 2
  %173 = load ptr, ptr %172, align 8, !tbaa !61
  %174 = getelementptr inbounds nuw %struct.H5D_shared_t, ptr %173, i32 0, i32 8
  %175 = call ptr @H5O_msg_read(ptr noundef %170, i32 noundef 8, ptr noundef %174)
  %176 = icmp eq ptr null, %175
  br i1 %176, label %177, label %196

177:                                              ; preds = %168
  br label %178

178:                                              ; preds = %177
  br label %179

179:                                              ; preds = %178
  br label %180

180:                                              ; preds = %179
  %181 = load i64, ptr @H5E_DATASET_g, align 8, !tbaa !11
  %182 = load i64, ptr @H5E_CANTINIT_g, align 8, !tbaa !11
  %183 = call i32 (ptr, ptr, i32, i64, i64, ptr, ...) @H5E_printf_stack(ptr noundef @.str.2, ptr noundef @__func__.H5D_mult_refresh_reopen, i32 noundef 2249, i64 noundef %181, i64 noundef %182, ptr noundef @.str.79)
  br label %184

184:                                              ; preds = %180
  br label %185

185:                                              ; preds = %184
  store i8 1, ptr %4, align 1, !tbaa !7
  %186 = load i8, ptr %4, align 1, !tbaa !7, !range !9, !noundef !10
  %187 = trunc i8 %186 to i1
  %188 = zext i1 %187 to i8
  store i8 %188, ptr %4, align 1, !tbaa !7
  br label %189

189:                                              ; preds = %185
  br label %190

190:                                              ; preds = %189
  br label %191

191:                                              ; preds = %190
  store i32 -1, ptr %3, align 4, !tbaa !3
  br label %198

192:                                              ; No predecessors!
  br label %193

193:                                              ; preds = %192
  br label %194

194:                                              ; preds = %193
  br label %195

195:                                              ; preds = %194
  br label %196

196:                                              ; preds = %195, %168
  br label %197

197:                                              ; preds = %196, %57
  br label %198

198:                                              ; preds = %197, %191, %163, %137, %114, %86, %36
  br label %199

199:                                              ; preds = %198, %49
  %200 = load i32, ptr %3, align 4, !tbaa !3
  call void @llvm.lifetime.end.p0(i64 1, ptr %4) #12
  call void @llvm.lifetime.end.p0(i64 4, ptr %3) #12
  ret i32 %200
}