; Function Attrs: nounwind uwtable
define range(i32 -1, 1) i32 @H5D_mult_refresh_reopen(ptr noundef %0) local_unnamed_addr #0 {
  %2 = load i8, ptr @H5D_init_g, align 1, !tbaa !3, !range !7, !noundef !8
  %3 = trunc nuw i8 %2 to i1
  %4 = load i8, ptr @H5_libterm_g, align 1, !range !7
  %5 = trunc nuw i8 %4 to i1
  %6 = select i1 %3, i1 true, i1 %5
  br i1 %6, label %14, label %7, !prof !9

7:                                                ; preds = %1
  store i8 1, ptr @H5D_init_g, align 1, !tbaa !3
  %8 = tail call i32 @H5D__init_package()
  %9 = icmp slt i32 %8, 0
  br i1 %9, label %10, label %._crit_edge

._crit_edge:                                      ; preds = %7
  %.pre = load i8, ptr @H5D_init_g, align 1, !tbaa !3, !range !7
  %.pre14 = load i8, ptr @H5_libterm_g, align 1, !range !7
  %.pre15 = trunc nuw i8 %.pre to i1
  %.pre16 = trunc nuw i8 %.pre14 to i1
  br label %14

10:                                               ; preds = %7
  store i8 0, ptr @H5D_init_g, align 1, !tbaa !3
  %11 = load i64, ptr @H5E_FUNC_g, align 8, !tbaa !10
  %12 = load i64, ptr @H5E_CANTINIT_g, align 8, !tbaa !10
  %13 = tail call i32 (ptr, ptr, i32, i64, i64, ptr, ...) @H5E_printf_stack(ptr noundef nonnull @.str.2, ptr noundef nonnull @__func__.H5D_mult_refresh_reopen, i32 noundef 2224, i64 noundef %11, i64 noundef %12, ptr noundef nonnull @.str.3) #12
  br label %65

14:                                               ; preds = %._crit_edge, %1
  %.pre-phi17 = phi i1 [ %.pre16, %._crit_edge ], [ %5, %1 ]
  %.pre-phi = phi i1 [ %.pre15, %._crit_edge ], [ %3, %1 ]
  %15 = xor i1 %.pre-phi17, true
  %16 = select i1 %.pre-phi, i1 true, i1 %15
  br i1 %16, label %17, label %65, !prof !9

17:                                               ; preds = %14
  %18 = getelementptr inbounds nuw i8, ptr %0, i64 48
  %19 = load ptr, ptr %18, align 8, !tbaa !52
  %20 = load i64, ptr %19, align 8, !tbaa !83
  %21 = icmp ugt i64 %20, 1
  br i1 %21, label %22, label %65

22:                                               ; preds = %17
  %23 = getelementptr inbounds nuw i8, ptr %19, i64 32
  %24 = load ptr, ptr %23, align 8, !tbaa !60
  %25 = tail call i32 @H5S_close(ptr noundef %24) #12
  %26 = icmp slt i32 %25, 0
  br i1 %26, label %27, label %31

27:                                               ; preds = %22
  %28 = load i64, ptr @H5E_DATASET_g, align 8, !tbaa !10
  %29 = load i64, ptr @H5E_CANTRELEASE_g, align 8, !tbaa !10
  %30 = tail call i32 (ptr, ptr, i32, i64, i64, ptr, ...) @H5E_printf_stack(ptr noundef nonnull @.str.2, ptr noundef nonnull @__func__.H5D_mult_refresh_reopen, i32 noundef 2233, i64 noundef %28, i64 noundef %29, ptr noundef nonnull @.str.49) #12
  br label %65

31:                                               ; preds = %22
  %32 = tail call ptr @H5S_read(ptr noundef nonnull %0) #12
  %33 = load ptr, ptr %18, align 8, !tbaa !52
  %34 = getelementptr inbounds nuw i8, ptr %33, i64 32
  store ptr %32, ptr %34, align 8, !tbaa !60
  %35 = icmp eq ptr %32, null
  br i1 %35, label %36, label %40

36:                                               ; preds = %31
  %37 = load i64, ptr @H5E_DATASET_g, align 8, !tbaa !10
  %38 = load i64, ptr @H5E_CANTINIT_g, align 8, !tbaa !10
  %39 = tail call i32 (ptr, ptr, i32, i64, i64, ptr, ...) @H5E_printf_stack(ptr noundef nonnull @.str.2, ptr noundef nonnull @__func__.H5D_mult_refresh_reopen, i32 noundef 2237, i64 noundef %37, i64 noundef %38, ptr noundef nonnull @.str.77) #12
  br label %65

40:                                               ; preds = %31
  %41 = tail call fastcc i32 @H5D__cache_dataspace_info(ptr noundef nonnull %0)
  %42 = icmp slt i32 %41, 0
  br i1 %42, label %43, label %47

43:                                               ; preds = %40
  %44 = load i64, ptr @H5E_DATASET_g, align 8, !tbaa !10
  %45 = load i64, ptr @H5E_CANTCOPY_g, align 8, !tbaa !10
  %46 = tail call i32 (ptr, ptr, i32, i64, i64, ptr, ...) @H5E_printf_stack(ptr noundef nonnull @.str.2, ptr noundef nonnull @__func__.H5D_mult_refresh_reopen, i32 noundef 2241, i64 noundef %44, i64 noundef %45, ptr noundef nonnull @.str.78) #12
  br label %65

47:                                               ; preds = %40
  %48 = load ptr, ptr %18, align 8, !tbaa !52
  %49 = getelementptr inbounds nuw i8, ptr %48, i64 248
  %50 = tail call i32 @H5O_msg_reset(i32 noundef 8, ptr noundef nonnull %49) #12
  %51 = icmp slt i32 %50, 0
  br i1 %51, label %52, label %56

52:                                               ; preds = %47
  %53 = load i64, ptr @H5E_DATASET_g, align 8, !tbaa !10
  %54 = load i64, ptr @H5E_CANTRESET_g, align 8, !tbaa !10
  %55 = tail call i32 (ptr, ptr, i32, i64, i64, ptr, ...) @H5E_printf_stack(ptr noundef nonnull @.str.2, ptr noundef nonnull @__func__.H5D_mult_refresh_reopen, i32 noundef 2245, i64 noundef %53, i64 noundef %54, ptr noundef nonnull @.str.46) #12
  br label %65

56:                                               ; preds = %47
  %57 = load ptr, ptr %18, align 8, !tbaa !52
  %58 = getelementptr inbounds nuw i8, ptr %57, i64 248
  %59 = tail call ptr @H5O_msg_read(ptr noundef nonnull %0, i32 noundef 8, ptr noundef nonnull %58) #12
  %60 = icmp eq ptr %59, null
  br i1 %60, label %61, label %65

61:                                               ; preds = %56
  %62 = load i64, ptr @H5E_DATASET_g, align 8, !tbaa !10
  %63 = load i64, ptr @H5E_CANTINIT_g, align 8, !tbaa !10
  %64 = tail call i32 (ptr, ptr, i32, i64, i64, ptr, ...) @H5E_printf_stack(ptr noundef nonnull @.str.2, ptr noundef nonnull @__func__.H5D_mult_refresh_reopen, i32 noundef 2249, i64 noundef %62, i64 noundef %63, ptr noundef nonnull @.str.79) #12
  br label %65

65:                                               ; preds = %10, %27, %36, %43, %52, %61, %56, %17, %14
  %.0 = phi i32 [ -1, %10 ], [ -1, %27 ], [ -1, %36 ], [ -1, %43 ], [ -1, %52 ], [ -1, %61 ], [ 0, %56 ], [ 0, %17 ], [ 0, %14 ]
  ret i32 %.0
}